; Function Attrs: mustprogress nofree norecurse nosync nounwind willreturn memory(argmem: write) uwtable
define void @_ZN11hgatp_csr_tC2EP11processor_tm(ptr noundef nonnull writeonly align 8 captures(none) dereferenceable(48) initializes((0, 37), (40, 48)) %0, ptr noundef %1, i64 noundef %2) unnamed_addr #3 align 2 {
  %4 = getelementptr inbounds nuw i8, ptr %0, i64 8
  store ptr %1, ptr %4, align 8, !tbaa !6
  %5 = getelementptr inbounds nuw i8, ptr %0, i64 16
  %6 = getelementptr inbounds nuw i8, ptr %1, i64 248
  store ptr %6, ptr %5, align 8, !tbaa !15
  %7 = getelementptr inbounds nuw i8, ptr %0, i64 24
  store i64 %2, ptr %7, align 8, !tbaa !16
  %8 = getelementptr inbounds nuw i8, ptr %0, i64 32
  %9 = trunc i64 %2 to i32
  %10 = lshr i32 %9, 8
  %11 = and i32 %10, 3
  store i32 %11, ptr %8, align 8, !tbaa !17
  %12 = getelementptr inbounds nuw i8, ptr %0, i64 36
  %13 = and i64 %2, 3072
  %14 = icmp eq i64 %13, 3072
  %15 = zext i1 %14 to i8
  store i8 %15, ptr %12, align 4, !tbaa !18
  %16 = getelementptr inbounds nuw i8, ptr %0, i64 40
  store i64 0, ptr %16, align 8, !tbaa !159
  store ptr getelementptr inbounds nuw inrange(-16, 48) (i8, ptr @_ZTV11hgatp_csr_t, i64 16), ptr %0, align 8, !tbaa !3
  ret void
}